target datalayout = "e-m:e-p270:32:32-p271:32:32-p272:64:64-i64:64-i128:128-f80:128-n8:16:32:64-S128"
target triple = "x86_64-pc-linux-gnu"

%struct.pcapio_writer = type { ptr, ptr, i32 }
%struct.stat = type { i64, i64, i64, i32, i32, i32, i32, i64, i64, i64, i64, %struct.timespec, %struct.timespec, %struct.timespec, [3 x i64] }
%struct.timespec = type { i64, i64 }

@.str = private unnamed_addr constant [3 x i8] c"wb\00", align 1

; Function Attrs: null_pointer_is_valid sspstrong uwtable
define internal ptr @writecap_file_open(ptr noundef %0, ptr noundef %1) #0 {
  %3 = alloca ptr, align 8
  %4 = alloca ptr, align 8
  %5 = alloca ptr, align 8
  %6 = alloca ptr, align 8
  %7 = alloca i32, align 4
  %8 = alloca i64, align 8
  %9 = alloca %struct.stat, align 8
  store ptr %0, ptr %4, align 8
  store ptr %1, ptr %5, align 8
  call void @llvm.lifetime.start.p0(i64 8, ptr %6) #12
  %10 = load ptr, ptr %4, align 8
  %11 = getelementptr inbounds nuw %struct.pcapio_writer, ptr %10, i32 0, i32 2
  %12 = load i32, ptr %11, align 8
  switch i32 %12, label %19 [
    i32 1, label %13
    i32 3, label %16
  ]

13:                                               ; preds = %2
  %14 = load ptr, ptr %5, align 8
  %15 = call ptr @gzwfile_open(ptr noundef %14)
  store ptr %15, ptr %3, align 8
  store i32 1, ptr %7, align 4
  br label %49

16:                                               ; preds = %2
  %17 = load ptr, ptr %5, align 8
  %18 = call ptr @lz4wfile_open(ptr noundef %17)
  store ptr %18, ptr %3, align 8
  store i32 1, ptr %7, align 4
  br label %49

19:                                               ; preds = %2
  %20 = load ptr, ptr %5, align 8
  %21 = call noalias ptr @fopen(ptr noundef %20, ptr noundef @.str)
  store ptr %21, ptr %6, align 8
  %22 = load ptr, ptr %6, align 8
  %23 = icmp ne ptr %22, null
  br i1 %23, label %24, label %47

24:                                               ; preds = %19
  call void @llvm.lifetime.start.p0(i64 8, ptr %8) #12
  store i64 65536, ptr %8, align 8
  call void @llvm.lifetime.start.p0(i64 144, ptr %9) #12
  %25 = load ptr, ptr %5, align 8
  %26 = call i32 @stat(ptr noundef %25, ptr noundef %9) #12
  %27 = icmp eq i32 %26, 0
  br i1 %27, label %28, label %36

28:                                               ; preds = %24
  %29 = getelementptr inbounds nuw %struct.stat, ptr %9, i32 0, i32 9
  %30 = load i64, ptr %29, align 8
  %31 = icmp sgt i64 %30, 65536
  br i1 %31, label %32, label %35

32:                                               ; preds = %28
  %33 = getelementptr inbounds nuw %struct.stat, ptr %9, i32 0, i32 9
  %34 = load i64, ptr %33, align 8
  store i64 %34, ptr %8, align 8
  br label %35

35:                                               ; preds = %32, %28
  br label %36

36:                                               ; preds = %35, %24
  %37 = load i64, ptr %8, align 8
  %38 = call noalias ptr @g_malloc(i64 noundef %37) #13
  %39 = load ptr, ptr %4, align 8
  %40 = getelementptr inbounds nuw %struct.pcapio_writer, ptr %39, i32 0, i32 1
  store ptr %38, ptr %40, align 8
  %41 = load ptr, ptr %6, align 8
  %42 = load ptr, ptr %4, align 8
  %43 = getelementptr inbounds nuw %struct.pcapio_writer, ptr %42, i32 0, i32 1
  %44 = load ptr, ptr %43, align 8
  %45 = load i64, ptr %8, align 8
  %46 = call i32 @setvbuf(ptr noundef %41, ptr noundef %44, i32 noundef 0, i64 noundef %45) #12
  call void @llvm.lifetime.end.p0(i64 144, ptr %9) #12
  call void @llvm.lifetime.end.p0(i64 8, ptr %8) #12
  br label %47

47:                                               ; preds = %36, %19
  %48 = load ptr, ptr %6, align 8
  store ptr %48, ptr %3, align 8
  store i32 1, ptr %7, align 4
  br label %49

49:                                               ; preds = %47, %16, %13
  call void @llvm.lifetime.end.p0(i64 8, ptr %6) #12
  %50 = load ptr, ptr %3, align 8
  ret ptr %50
}

; Function Attrs: null_pointer_is_valid sspstrong uwtable
define hidden ptr @writecap_fopen(ptr noundef %0, i32 noundef %1, ptr noundef %2) #0 {
  %4 = alloca ptr, align 8
  %5 = alloca ptr, align 8
  %6 = alloca i32, align 4
  %7 = alloca ptr, align 8
  %8 = alloca ptr, align 8
  %9 = alloca i64, align 8
  %10 = alloca i64, align 8
  %11 = alloca ptr, align 8
  %12 = alloca ptr, align 8
  %13 = alloca i32, align 4
  %14 = alloca ptr, align 8
  store ptr %0, ptr %5, align 8
  store i32 %1, ptr %6, align 4
  store ptr %2, ptr %7, align 8
  call void @llvm.lifetime.start.p0(i64 8, ptr %8) #12
  %15 = load ptr, ptr %7, align 8
  store i32 0, ptr %15, align 4
  call void @llvm.lifetime.start.p0(i64 8, ptr %9) #12
  store i64 1, ptr %9, align 8
  call void @llvm.lifetime.start.p0(i64 8, ptr %10) #12
  store i64 24, ptr %10, align 8
  call void @llvm.lifetime.start.p0(i64 8, ptr %11) #12
  %16 = load i64, ptr %10, align 8
  %17 = icmp eq i64 %16, 1
  br i1 %17, label %18, label %21

18:                                               ; preds = %3
  %19 = load i64, ptr %9, align 8
  %20 = call noalias ptr @g_malloc0(i64 noundef %19) #13
  store ptr %20, ptr %11, align 8
  br label %42

21:                                               ; preds = %3
  %22 = load i64, ptr %9, align 8
  %23 = call i1 @llvm.is.constant.i64(i64 %22)
  br i1 %23, label %24, label %37

24:                                               ; preds = %21
  %25 = load i64, ptr %10, align 8
  %26 = icmp eq i64 %25, 0
  br i1 %26, label %32, label %27

27:                                               ; preds = %24
  %28 = load i64, ptr %9, align 8
  %29 = load i64, ptr %10, align 8
  %30 = udiv i64 -1, %29
  %31 = icmp ule i64 %28, %30
  br i1 %31, label %32, label %37

32:                                               ; preds = %27, %24
  %33 = load i64, ptr %9, align 8
  %34 = load i64, ptr %10, align 8
  %35 = mul i64 %33, %34
  %36 = call noalias ptr @g_malloc0(i64 noundef %35) #13
  store ptr %36, ptr %11, align 8
  br label %41

37:                                               ; preds = %27, %21
  %38 = load i64, ptr %9, align 8
  %39 = load i64, ptr %10, align 8
  %40 = call noalias ptr @g_malloc0_n(i64 noundef %38, i64 noundef %39) #14
  store ptr %40, ptr %11, align 8
  br label %41

41:                                               ; preds = %37, %32
  br label %42

42:                                               ; preds = %41, %18
  %43 = load ptr, ptr %11, align 8
  store ptr %43, ptr %12, align 8
  call void @llvm.lifetime.end.p0(i64 8, ptr %11) #12
  call void @llvm.lifetime.end.p0(i64 8, ptr %10) #12
  call void @llvm.lifetime.end.p0(i64 8, ptr %9) #12
  %44 = load ptr, ptr %12, align 8
  store ptr %44, ptr %8, align 8
  %45 = load ptr, ptr %8, align 8
  %46 = icmp eq ptr %45, null
  br i1 %46, label %47, label %51

47:                                               ; preds = %42
  %48 = call ptr @__errno_location() #15
  %49 = load i32, ptr %48, align 4
  %50 = load ptr, ptr %7, align 8
  store i32 %49, ptr %50, align 4
  store ptr null, ptr %4, align 8
  store i32 1, ptr %13, align 4
  br label %72

51:                                               ; preds = %42
  %52 = load i32, ptr %6, align 4
  %53 = load ptr, ptr %8, align 8
  %54 = getelementptr inbounds nuw %struct.pcapio_writer, ptr %53, i32 0, i32 2
  store i32 %52, ptr %54, align 8
  %55 = call ptr @__errno_location() #15
  store i32 -6, ptr %55, align 4
  call void @llvm.lifetime.start.p0(i64 8, ptr %14) #12
  %56 = load ptr, ptr %8, align 8
  %57 = load ptr, ptr %5, align 8
  %58 = call ptr @writecap_file_open(ptr noundef %56, ptr noundef %57)
  store ptr %58, ptr %14, align 8
  %59 = load ptr, ptr %14, align 8
  %60 = icmp eq ptr %59, null
  br i1 %60, label %61, label %66

61:                                               ; preds = %51
  %62 = call ptr @__errno_location() #15
  %63 = load i32, ptr %62, align 4
  %64 = load ptr, ptr %7, align 8
  store i32 %63, ptr %64, align 4
  %65 = load ptr, ptr %8, align 8
  call void @g_free(ptr noundef %65)
  store ptr null, ptr %4, align 8
  store i32 1, ptr %13, align 4
  br label %71

66:                                               ; preds = %51
  %67 = load ptr, ptr %14, align 8
  %68 = load ptr, ptr %8, align 8
  %69 = getelementptr inbounds nuw %struct.pcapio_writer, ptr %68, i32 0, i32 0
  store ptr %67, ptr %69, align 8
  %70 = load ptr, ptr %8, align 8
  store ptr %70, ptr %4, align 8
  store i32 1, ptr %13, align 4
  br label %71

71:                                               ; preds = %66, %61
  call void @llvm.lifetime.end.p0(i64 8, ptr %14) #12
  br label %72

72:                                               ; preds = %71, %47
  call void @llvm.lifetime.end.p0(i64 8, ptr %8) #12
  %73 = load ptr, ptr %4, align 8
  ret ptr %73
}