; Function Attrs: null_pointer_is_valid sspstrong uwtable
define hidden noundef ptr @writecap_fopen(ptr noundef %0, i32 noundef %1, ptr noundef writeonly captures(none) initializes((0, 4)) %2) local_unnamed_addr #0 {
  %4 = alloca %struct.stat, align 8
  store i32 0, ptr %2, align 4
  %5 = tail call noalias dereferenceable_or_null(24) ptr @g_malloc0(i64 noundef 24) #12
  %6 = icmp eq ptr %5, null
  br i1 %6, label %7, label %10

7:                                                ; preds = %3
  %8 = tail call ptr @__errno_location() #13
  %9 = load i32, ptr %8, align 4
  store i32 %9, ptr %2, align 4
  br label %30

10:                                               ; preds = %3
  %11 = getelementptr inbounds nuw i8, ptr %5, i64 16
  store i32 %1, ptr %11, align 8
  %12 = tail call ptr @__errno_location() #13
  store i32 -6, ptr %12, align 4
  switch i32 %1, label %17 [
    i32 1, label %13
    i32 3, label %15
  ]

13:                                               ; preds = %10
  %14 = tail call ptr @gzwfile_open(ptr noundef %0)
  br label %writecap_file_open.exit

15:                                               ; preds = %10
  %16 = tail call ptr @lz4wfile_open(ptr noundef %0)
  br label %writecap_file_open.exit

17:                                               ; preds = %10
  %18 = tail call noalias ptr @fopen(ptr noundef %0, ptr noundef nonnull @.str)
  %.not.i = icmp eq ptr %18, null
  br i1 %.not.i, label %writecap_file_open.exit.thread, label %writecap_file_open.exit.thread28

writecap_file_open.exit.thread28:                 ; preds = %17
  call void @llvm.lifetime.start.p0(i64 144, ptr nonnull %4) #14
  %19 = call i32 @stat(ptr noundef %0, ptr noundef nonnull %4) #14
  %20 = icmp eq i32 %19, 0
  %21 = getelementptr inbounds nuw i8, ptr %4, i64 56
  %22 = load i64, ptr %21, align 8
  %23 = tail call i64 @llvm.smax.i64(i64 %22, i64 65536)
  %spec.select.i = select i1 %20, i64 %23, i64 65536
  %24 = tail call noalias ptr @g_malloc(i64 noundef %spec.select.i) #12
  %25 = getelementptr inbounds nuw i8, ptr %5, i64 8
  store ptr %24, ptr %25, align 8
  %26 = tail call i32 @setvbuf(ptr noundef nonnull %18, ptr noundef %24, i32 noundef 0, i64 noundef %spec.select.i) #14
  call void @llvm.lifetime.end.p0(i64 144, ptr nonnull %4) #14
  br label %29

writecap_file_open.exit:                          ; preds = %13, %15
  %.014.i = phi ptr [ %16, %15 ], [ %14, %13 ]
  %27 = icmp eq ptr %.014.i, null
  br i1 %27, label %writecap_file_open.exit.thread, label %29

writecap_file_open.exit.thread:                   ; preds = %17, %writecap_file_open.exit
  %28 = load i32, ptr %12, align 4
  store i32 %28, ptr %2, align 4
  tail call void @g_free(ptr noundef nonnull %5)
  br label %30

29:                                               ; preds = %writecap_file_open.exit.thread28, %writecap_file_open.exit
  %.014.i30 = phi ptr [ %18, %writecap_file_open.exit.thread28 ], [ %.014.i, %writecap_file_open.exit ]
  store ptr %.014.i30, ptr %5, align 8
  br label %30

30:                                               ; preds = %writecap_file_open.exit.thread, %29, %7
  %.0 = phi ptr [ null, %7 ], [ null, %writecap_file_open.exit.thread ], [ %5, %29 ]
  ret ptr %.0
}